; Function Attrs: mustprogress uwtable
define hidden void @_ZN2cv33parallel_pthreads_set_threads_numEi(i32 noundef %0) local_unnamed_addr #3 personality ptr @__gxx_personality_v0 {
  %2 = icmp slt i32 %0, 0
  %3 = load atomic i8, ptr @_ZGVZN2cv10ThreadPool8instanceEvE8instance acquire, align 8
  %4 = icmp eq i8 %3, 0
  br i1 %2, label %5, label %20

5:                                                ; preds = %1
  br i1 %4, label %6, label %_ZN2cv10ThreadPool8instanceEv.exit, !prof !130

6:                                                ; preds = %5
  %7 = tail call i32 @__cxa_guard_acquire(ptr nonnull @_ZGVZN2cv10ThreadPool8instanceEvE8instance) #5
  %.not.i = icmp eq i32 %7, 0
  br i1 %.not.i, label %_ZN2cv10ThreadPool8instanceEv.exit, label %8

8:                                                ; preds = %6
  %9 = invoke noalias noundef nonnull dereferenceable(176) ptr @_Znwm(i64 noundef 176) #23
          to label %10 unwind label %13

10:                                               ; preds = %8
  invoke void @_ZN2cv10ThreadPoolC2Ev(ptr noundef nonnull align 8 dereferenceable(176) %9)
          to label %11 unwind label %15

11:                                               ; preds = %10
  store ptr %9, ptr @_ZZN2cv10ThreadPool8instanceEvE8instance, align 8, !tbaa !96
  %12 = tail call ptr @llvm.invariant.start.p0(i64 8, ptr nonnull @_ZZN2cv10ThreadPool8instanceEvE8instance)
  tail call void @__cxa_guard_release(ptr nonnull @_ZGVZN2cv10ThreadPool8instanceEvE8instance) #5
  br label %_ZN2cv10ThreadPool8instanceEv.exit

13:                                               ; preds = %8
  %14 = landingpad { ptr, i32 }
          cleanup
  br label %common.resume

15:                                               ; preds = %10
  %16 = landingpad { ptr, i32 }
          cleanup
  tail call void @_ZdlPv(ptr noundef nonnull %9) #21
  br label %common.resume

common.resume:                                    ; preds = %28, %30, %13, %15
  %common.resume.op = phi { ptr, i32 } [ %16, %15 ], [ %14, %13 ], [ %31, %30 ], [ %29, %28 ]
  tail call void @__cxa_guard_abort(ptr nonnull @_ZGVZN2cv10ThreadPool8instanceEvE8instance) #5
  resume { ptr, i32 } %common.resume.op

_ZN2cv10ThreadPool8instanceEv.exit:               ; preds = %5, %6, %11
  %17 = load ptr, ptr @_ZZN2cv10ThreadPool8instanceEvE8instance, align 8, !tbaa !96
  %18 = load i32, ptr %17, align 8, !tbaa !45
  %.not.i2 = icmp eq i32 %18, 0
  br i1 %.not.i2, label %_ZN2cv10ThreadPool15setNumOfThreadsEj.exit, label %19

19:                                               ; preds = %_ZN2cv10ThreadPool8instanceEv.exit
  store i32 0, ptr %17, align 8, !tbaa !45
  br label %_ZN2cv10ThreadPool15setNumOfThreadsEj.exit

20:                                               ; preds = %1
  br i1 %4, label %21, label %_ZN2cv10ThreadPool8instanceEv.exit5, !prof !130

21:                                               ; preds = %20
  %22 = tail call i32 @__cxa_guard_acquire(ptr nonnull @_ZGVZN2cv10ThreadPool8instanceEvE8instance) #5
  %.not.i3 = icmp eq i32 %22, 0
  br i1 %.not.i3, label %_ZN2cv10ThreadPool8instanceEv.exit5, label %23

23:                                               ; preds = %21
  %24 = invoke noalias noundef nonnull dereferenceable(176) ptr @_Znwm(i64 noundef 176) #23
          to label %25 unwind label %28

25:                                               ; preds = %23
  invoke void @_ZN2cv10ThreadPoolC2Ev(ptr noundef nonnull align 8 dereferenceable(176) %24)
          to label %26 unwind label %30

26:                                               ; preds = %25
  store ptr %24, ptr @_ZZN2cv10ThreadPool8instanceEvE8instance, align 8, !tbaa !96
  %27 = tail call ptr @llvm.invariant.start.p0(i64 8, ptr nonnull @_ZZN2cv10ThreadPool8instanceEvE8instance)
  tail call void @__cxa_guard_release(ptr nonnull @_ZGVZN2cv10ThreadPool8instanceEvE8instance) #5
  br label %_ZN2cv10ThreadPool8instanceEv.exit5

28:                                               ; preds = %23
  %29 = landingpad { ptr, i32 }
          cleanup
  br label %common.resume

30:                                               ; preds = %25
  %31 = landingpad { ptr, i32 }
          cleanup
  tail call void @_ZdlPv(ptr noundef nonnull %24) #21
  br label %common.resume

_ZN2cv10ThreadPool8instanceEv.exit5:              ; preds = %20, %21, %26
  %32 = load ptr, ptr @_ZZN2cv10ThreadPool8instanceEvE8instance, align 8, !tbaa !96
  %33 = load i32, ptr %32, align 8, !tbaa !45
  %.not.i6 = icmp eq i32 %0, %33
  br i1 %.not.i6, label %_ZN2cv10ThreadPool15setNumOfThreadsEj.exit, label %34

34:                                               ; preds = %_ZN2cv10ThreadPool8instanceEv.exit5
  store i32 %0, ptr %32, align 8, !tbaa !45
  %35 = icmp eq i32 %0, 1
  %36 = getelementptr inbounds nuw i8, ptr %32, i64 160
  %37 = load ptr, ptr %36, align 8
  %.not.i.i7 = icmp eq ptr %37, null
  %or.cond.i = select i1 %35, i1 %.not.i.i7, i1 false
  br i1 %or.cond.i, label %38, label %_ZN2cv10ThreadPool15setNumOfThreadsEj.exit

38:                                               ; preds = %34
  %39 = getelementptr inbounds nuw i8, ptr %32, i64 136
  %40 = getelementptr inbounds nuw i8, ptr %32, i64 144
  %41 = load ptr, ptr %40, align 8, !tbaa !86
  %42 = load ptr, ptr %39, align 8, !tbaa !85
  %43 = icmp eq ptr %41, %42
  br i1 %43, label %_ZN2cv10ThreadPool15setNumOfThreadsEj.exit, label %44

44:                                               ; preds = %38
  %45 = getelementptr inbounds nuw i8, ptr %32, i64 8
  %46 = tail call i32 @pthread_mutex_lock(ptr noundef nonnull %45) #5
  %47 = tail call noundef zeroext i1 @_ZN2cv10ThreadPool12reconfigure_Ej(ptr noundef nonnull align 8 dereferenceable(176) %32, i32 noundef 0)
  %48 = tail call i32 @pthread_mutex_unlock(ptr noundef nonnull %45) #5
  br label %_ZN2cv10ThreadPool15setNumOfThreadsEj.exit

_ZN2cv10ThreadPool15setNumOfThreadsEj.exit:       ; preds = %44, %38, %34, %_ZN2cv10ThreadPool8instanceEv.exit5, %19, %_ZN2cv10ThreadPool8instanceEv.exit
  ret void
}